; Function Attrs: mustprogress nounwind uwtable
define hidden noundef ptr @_ZN16VM_GetOrSetLocal15get_java_vframeEv(ptr nocapture noundef nonnull align 8 dereferenceable(96) %0) unnamed_addr #0 align 2 {
  %2 = alloca %class.RegisterMap, align 8
  call void @llvm.lifetime.start.p0(i64 4984, ptr nonnull %2)
  %3 = getelementptr inbounds i8, ptr %0, i64 64
  %4 = load ptr, ptr %3, align 8
  %5 = getelementptr inbounds i8, ptr %4, i64 928
  %6 = load volatile ptr, ptr %5, align 8
  %.not10.i = icmp eq ptr %6, null
  br i1 %.not10.i, label %_ZN16VM_GetOrSetLocal10get_vframeEv.exit, label %7

7:                                                ; preds = %1
  call void @_ZN11RegisterMapC1EP10JavaThreadNS_9UpdateMapENS_13ProcessFramesENS_16WalkContinuationE(ptr noundef nonnull align 8 dereferenceable(4983) %2, ptr noundef nonnull %4, i32 noundef 1, i32 noundef 1, i32 noundef 1) #17
  %8 = load ptr, ptr %3, align 8
  %9 = call noundef ptr @_ZN12JvmtiEnvBase28get_cthread_last_java_vframeEP10JavaThreadP11RegisterMap(ptr noundef %8, ptr noundef nonnull %2) #17
  %10 = getelementptr inbounds i8, ptr %0, i64 24
  %.not11.i = icmp ne ptr %9, null
  %11 = load i32, ptr %10, align 8
  %12 = icmp sgt i32 %11, 0
  %or.cond12.i = select i1 %.not11.i, i1 %12, i1 false
  br i1 %or.cond12.i, label %.lr.ph.i, label %_ZN16VM_GetOrSetLocal10get_vframeEv.exit

.lr.ph.i:                                         ; preds = %7, %.lr.ph.i
  %.014.i = phi i32 [ %14, %.lr.ph.i ], [ 0, %7 ]
  %.0613.i = phi ptr [ %13, %.lr.ph.i ], [ %9, %7 ]
  %13 = call noundef ptr @_ZNK6vframe11java_senderEv(ptr noundef nonnull align 8 dereferenceable(5064) %.0613.i) #17
  %14 = add nuw nsw i32 %.014.i, 1
  %.not.i = icmp ne ptr %13, null
  %15 = load i32, ptr %10, align 8
  %16 = icmp slt i32 %14, %15
  %or.cond.i = select i1 %.not.i, i1 %16, i1 false
  br i1 %or.cond.i, label %.lr.ph.i, label %_ZN16VM_GetOrSetLocal10get_vframeEv.exit, !llvm.loop !21

_ZN16VM_GetOrSetLocal10get_vframeEv.exit:         ; preds = %.lr.ph.i, %1, %7
  %.07.i = phi ptr [ null, %1 ], [ %9, %7 ], [ %13, %.lr.ph.i ]
  call void @llvm.lifetime.end.p0(i64 4984, ptr nonnull %2)
  %17 = getelementptr inbounds i8, ptr %0, i64 57
  %18 = load i8, ptr %17, align 1
  %19 = trunc i8 %18 to i1
  br i1 %19, label %25, label %20

20:                                               ; preds = %_ZN16VM_GetOrSetLocal10get_vframeEv.exit
  %21 = load ptr, ptr %3, align 8
  %22 = getelementptr inbounds i8, ptr %21, i64 1138
  %23 = load volatile i8, ptr %22, align 2
  %24 = trunc i8 %23 to i1
  br i1 %24, label %25, label %.sink.split

25:                                               ; preds = %20, %_ZN16VM_GetOrSetLocal10get_vframeEv.exit
  %26 = icmp eq ptr %.07.i, null
  br i1 %26, label %.sink.split, label %27

27:                                               ; preds = %25
  %28 = load ptr, ptr %.07.i, align 8
  %29 = getelementptr inbounds i8, ptr %28, i64 24
  %30 = load ptr, ptr %29, align 8
  %31 = call noundef zeroext i1 %30(ptr noundef nonnull align 8 dereferenceable(5064) %.07.i) #17
  br i1 %31, label %33, label %.sink.split

.sink.split:                                      ; preds = %27, %25, %20
  %.sink = phi i32 [ 13, %20 ], [ 31, %25 ], [ 32, %27 ]
  %32 = getelementptr inbounds i8, ptr %0, i64 60
  store i32 %.sink, ptr %32, align 4
  br label %33

33:                                               ; preds = %.sink.split, %27
  %.0 = phi ptr [ %.07.i, %27 ], [ null, %.sink.split ]
  ret ptr %.0
}